target datalayout = "e-m:e-p270:32:32-p271:32:32-p272:64:64-i64:64-i128:128-f80:128-n8:16:32:64-S128"
target triple = "x86_64-pc-linux-gnu"

%struct.nghttp2_buf = type { ptr, ptr, ptr, ptr, ptr }
%struct.nghttp2_bufs = type { ptr, ptr, ptr, i64, i64, i64, i64, i64 }
%struct.nghttp2_buf_chain = type { ptr, %struct.nghttp2_buf }

; Function Attrs: nounwind uwtable
define hidden i32 @nghttp2_bufs_next_present(ptr noundef %0) #0 {
  %2 = alloca ptr, align 8
  %3 = alloca ptr, align 8
  store ptr %0, ptr %2, align 8, !tbaa !3
  call void @llvm.lifetime.start.p0(i64 8, ptr %3) #4
  %4 = load ptr, ptr %2, align 8, !tbaa !3
  %5 = getelementptr inbounds nuw %struct.nghttp2_bufs, ptr %4, i32 0, i32 1
  %6 = load ptr, ptr %5, align 8, !tbaa !25
  %7 = getelementptr inbounds nuw %struct.nghttp2_buf_chain, ptr %6, i32 0, i32 0
  %8 = load ptr, ptr %7, align 8, !tbaa !36
  store ptr %8, ptr %3, align 8, !tbaa !23
  %9 = load ptr, ptr %3, align 8, !tbaa !23
  %10 = icmp ne ptr %9, null
  br i1 %10, label %11, label %24

11:                                               ; preds = %1
  %12 = load ptr, ptr %3, align 8, !tbaa !23
  %13 = getelementptr inbounds nuw %struct.nghttp2_buf_chain, ptr %12, i32 0, i32 1
  %14 = getelementptr inbounds nuw %struct.nghttp2_buf, ptr %13, i32 0, i32 3
  %15 = load ptr, ptr %14, align 8, !tbaa !28
  %16 = load ptr, ptr %3, align 8, !tbaa !23
  %17 = getelementptr inbounds nuw %struct.nghttp2_buf_chain, ptr %16, i32 0, i32 1
  %18 = getelementptr inbounds nuw %struct.nghttp2_buf, ptr %17, i32 0, i32 2
  %19 = load ptr, ptr %18, align 8, !tbaa !26
  %20 = ptrtoint ptr %15 to i64
  %21 = ptrtoint ptr %19 to i64
  %22 = sub i64 %20, %21
  %23 = icmp ne i64 %22, 0
  br label %24

24:                                               ; preds = %11, %1
  %25 = phi i1 [ false, %1 ], [ %23, %11 ]
  %26 = zext i1 %25 to i32
  call void @llvm.lifetime.end.p0(i64 8, ptr %3) #4
  ret i32 %26
}