; Function Attrs: mustprogress nofree norecurse nosync nounwind willreturn memory(read, inaccessiblemem: none) uwtable
define hidden range(i32 0, 2) i32 @nghttp2_bufs_next_present(ptr noundef readonly captures(none) %0) local_unnamed_addr #7 {
  %2 = getelementptr inbounds nuw i8, ptr %0, i64 8
  %3 = load ptr, ptr %2, align 8, !tbaa !19
  %4 = load ptr, ptr %3, align 8, !tbaa !27
  %.not = icmp eq ptr %4, null
  br i1 %.not, label %12, label %5

5:                                                ; preds = %1
  %6 = getelementptr inbounds nuw i8, ptr %4, i64 32
  %7 = load ptr, ptr %6, align 8, !tbaa !22
  %8 = getelementptr inbounds nuw i8, ptr %4, i64 24
  %9 = load ptr, ptr %8, align 8, !tbaa !20
  %10 = icmp ne ptr %7, %9
  %11 = zext i1 %10 to i32
  br label %12

12:                                               ; preds = %5, %1
  %13 = phi i32 [ 0, %1 ], [ %11, %5 ]
  ret i32 %13
}